; Function Attrs: nofree norecurse nosync nounwind memory(argmem: readwrite) uwtable
define range(i64 -48, 4294967296) i64 @HIST_countFast(ptr noundef captures(none) %0, ptr noundef captures(none) %1, ptr noundef captures(address) %2, i64 noundef %3) local_unnamed_addr #1 {
  %5 = alloca [1024 x i32], align 16
  call void @llvm.lifetime.start.p0(i64 4096, ptr nonnull %5) #6
  %6 = icmp ult i64 %3, 1500
  br i1 %6, label %7, label %31

7:                                                ; preds = %4
  %8 = getelementptr inbounds nuw i8, ptr %2, i64 %3
  %9 = load i32, ptr %1, align 4, !tbaa !6
  %10 = add i32 %9, 1
  %11 = zext i32 %10 to i64
  %12 = shl nuw nsw i64 %11, 2
  tail call void @llvm.memset.p0.i64(ptr align 4 %0, i8 0, i64 %12, i1 false)
  %13 = icmp eq i64 %3, 0
  br i1 %13, label %14, label %.lr.ph.i.i

14:                                               ; preds = %7
  store i32 0, ptr %1, align 4, !tbaa !6
  br label %HIST_countFast_wksp.exit

.lr.ph.i.i:                                       ; preds = %7, %.lr.ph.i.i
  %.02933.i.i = phi ptr [ %15, %.lr.ph.i.i ], [ %2, %7 ]
  %15 = getelementptr inbounds nuw i8, ptr %.02933.i.i, i64 1
  %16 = load i8, ptr %.02933.i.i, align 1, !tbaa !3
  %17 = zext i8 %16 to i64
  %18 = getelementptr inbounds nuw i32, ptr %0, i64 %17
  %19 = load i32, ptr %18, align 4, !tbaa !6
  %20 = add i32 %19, 1
  store i32 %20, ptr %18, align 4, !tbaa !6
  %21 = icmp ult ptr %15, %8
  br i1 %21, label %.lr.ph.i.i, label %.preheader.i.i, !llvm.loop !10

.preheader.i.i:                                   ; preds = %.lr.ph.i.i, %.preheader.i.i
  %.027.i.i = phi i32 [ %25, %.preheader.i.i ], [ %9, %.lr.ph.i.i ]
  %22 = zext i32 %.027.i.i to i64
  %23 = getelementptr inbounds nuw i32, ptr %0, i64 %22
  %24 = load i32, ptr %23, align 4, !tbaa !6
  %.not.i.i = icmp eq i32 %24, 0
  %25 = add i32 %.027.i.i, -1
  br i1 %.not.i.i, label %.preheader.i.i, label %26, !llvm.loop !11

26:                                               ; preds = %.preheader.i.i
  store i32 %.027.i.i, ptr %1, align 4, !tbaa !6
  br label %27

27:                                               ; preds = %27, %26
  %indvars.iv.i.i = phi i64 [ 0, %26 ], [ %indvars.iv.next.i.i, %27 ]
  %.02634.i.i = phi i32 [ 0, %26 ], [ %spec.select.i.i, %27 ]
  %28 = getelementptr inbounds nuw i32, ptr %0, i64 %indvars.iv.i.i
  %29 = load i32, ptr %28, align 4, !tbaa !6
  %spec.select.i.i = tail call i32 @llvm.umax.i32(i32 %29, i32 %.02634.i.i)
  %indvars.iv.next.i.i = add nuw nsw i64 %indvars.iv.i.i, 1
  %exitcond.not.i = icmp eq i64 %indvars.iv.i.i, %22
  br i1 %exitcond.not.i, label %HIST_count_simple.exit.loopexit.i, label %27, !llvm.loop !12

HIST_count_simple.exit.loopexit.i:                ; preds = %27
  %30 = zext i32 %spec.select.i.i to i64
  br label %HIST_countFast_wksp.exit

31:                                               ; preds = %4
  %32 = call fastcc i64 @HIST_count_parallel_wksp(ptr noundef %0, ptr noundef %1, ptr noundef %2, i64 noundef %3, i32 noundef 0, ptr noundef nonnull %5)
  br label %HIST_countFast_wksp.exit

HIST_countFast_wksp.exit:                         ; preds = %14, %HIST_count_simple.exit.loopexit.i, %31
  %.0.i = phi i64 [ %32, %31 ], [ 0, %14 ], [ %30, %HIST_count_simple.exit.loopexit.i ]
  call void @llvm.lifetime.end.p0(i64 4096, ptr nonnull %5) #6
  ret i64 %.0.i
}